target datalayout = "e-m:e-p270:32:32-p271:32:32-p272:64:64-i64:64-i128:128-f80:128-n8:16:32:64-S128"
target triple = "x86_64-pc-linux-gnu"

%struct.mbedtls_ctr_drbg_context = type { [16 x i8], i32, i32, i64, i32, %struct.mbedtls_aes_context, ptr, ptr }
%struct.mbedtls_aes_context = type { i32, i64, [68 x i32] }

; Function Attrs: nounwind uwtable
define internal i64 @good_nonce_len(i64 noundef %0) #0 {
  %2 = alloca i64, align 8
  %3 = alloca i64, align 8
  store i64 %0, ptr %3, align 8, !tbaa !16
  %4 = load i64, ptr %3, align 8, !tbaa !16
  %5 = icmp uge i64 %4, 48
  br i1 %5, label %6, label %7

6:                                                ; preds = %1
  store i64 0, ptr %2, align 8
  br label %11

7:                                                ; preds = %1
  %8 = load i64, ptr %3, align 8, !tbaa !16
  %9 = add i64 %8, 1
  %10 = udiv i64 %9, 2
  store i64 %10, ptr %2, align 8
  br label %11

11:                                               ; preds = %7, %6
  %12 = load i64, ptr %2, align 8
  ret i64 %12
}

; Function Attrs: nounwind uwtable
define hidden i32 @mbedtls_ctr_drbg_seed(ptr noundef %0, ptr noundef %1, ptr noundef %2, ptr noundef %3, i64 noundef %4) #0 {
  %6 = alloca i32, align 4
  %7 = alloca ptr, align 8
  %8 = alloca ptr, align 8
  %9 = alloca ptr, align 8
  %10 = alloca ptr, align 8
  %11 = alloca i64, align 8
  %12 = alloca i32, align 4
  %13 = alloca [32 x i8], align 16
  %14 = alloca i64, align 8
  %15 = alloca i32, align 4
  store ptr %0, ptr %7, align 8, !tbaa !3
  store ptr %1, ptr %8, align 8, !tbaa !29
  store ptr %2, ptr %9, align 8, !tbaa !29
  store ptr %3, ptr %10, align 8, !tbaa !19
  store i64 %4, ptr %11, align 8, !tbaa !16
  call void @llvm.lifetime.start.p0(i64 4, ptr %12) #10
  store i32 -110, ptr %12, align 4, !tbaa !14
  call void @llvm.lifetime.start.p0(i64 32, ptr %13) #10
  call void @llvm.lifetime.start.p0(i64 8, ptr %14) #10
  %16 = getelementptr inbounds [32 x i8], ptr %13, i64 0, i64 0
  call void @llvm.memset.p0.i64(ptr align 16 %16, i8 0, i64 32, i1 false)
  %17 = load ptr, ptr %8, align 8, !tbaa !29
  %18 = load ptr, ptr %7, align 8, !tbaa !3
  %19 = getelementptr inbounds nuw %struct.mbedtls_ctr_drbg_context, ptr %18, i32 0, i32 6
  store ptr %17, ptr %19, align 8, !tbaa !18
  %20 = load ptr, ptr %9, align 8, !tbaa !29
  %21 = load ptr, ptr %7, align 8, !tbaa !3
  %22 = getelementptr inbounds nuw %struct.mbedtls_ctr_drbg_context, ptr %21, i32 0, i32 7
  store ptr %20, ptr %22, align 8, !tbaa !28
  %23 = load ptr, ptr %7, align 8, !tbaa !3
  %24 = getelementptr inbounds nuw %struct.mbedtls_ctr_drbg_context, ptr %23, i32 0, i32 3
  %25 = load i64, ptr %24, align 8, !tbaa !17
  %26 = icmp eq i64 %25, 0
  br i1 %26, label %27, label %30

27:                                               ; preds = %5
  %28 = load ptr, ptr %7, align 8, !tbaa !3
  %29 = getelementptr inbounds nuw %struct.mbedtls_ctr_drbg_context, ptr %28, i32 0, i32 3
  store i64 48, ptr %29, align 8, !tbaa !17
  br label %30

30:                                               ; preds = %27, %5
  %31 = load ptr, ptr %7, align 8, !tbaa !3
  %32 = getelementptr inbounds nuw %struct.mbedtls_ctr_drbg_context, ptr %31, i32 0, i32 1
  %33 = load i32, ptr %32, align 8, !tbaa !8
  %34 = icmp sge i32 %33, 0
  br i1 %34, label %35, label %40

35:                                               ; preds = %30
  %36 = load ptr, ptr %7, align 8, !tbaa !3
  %37 = getelementptr inbounds nuw %struct.mbedtls_ctr_drbg_context, ptr %36, i32 0, i32 1
  %38 = load i32, ptr %37, align 8, !tbaa !8
  %39 = sext i32 %38 to i64
  br label %45

40:                                               ; preds = %30
  %41 = load ptr, ptr %7, align 8, !tbaa !3
  %42 = getelementptr inbounds nuw %struct.mbedtls_ctr_drbg_context, ptr %41, i32 0, i32 3
  %43 = load i64, ptr %42, align 8, !tbaa !17
  %44 = call i64 @good_nonce_len(i64 noundef %43)
  br label %45

45:                                               ; preds = %40, %35
  %46 = phi i64 [ %39, %35 ], [ %44, %40 ]
  store i64 %46, ptr %14, align 8, !tbaa !16
  %47 = load ptr, ptr %7, align 8, !tbaa !3
  %48 = getelementptr inbounds nuw %struct.mbedtls_ctr_drbg_context, ptr %47, i32 0, i32 5
  %49 = getelementptr inbounds [32 x i8], ptr %13, i64 0, i64 0
  %50 = call i32 @mbedtls_aes_setkey_enc(ptr noundef %48, ptr noundef %49, i32 noundef 256)
  store i32 %50, ptr %12, align 4, !tbaa !14
  %51 = icmp ne i32 %50, 0
  br i1 %51, label %52, label %54

52:                                               ; preds = %45
  %53 = load i32, ptr %12, align 4, !tbaa !14
  store i32 %53, ptr %6, align 4
  store i32 1, ptr %15, align 4
  br label %64

54:                                               ; preds = %45
  %55 = load ptr, ptr %7, align 8, !tbaa !3
  %56 = load ptr, ptr %10, align 8, !tbaa !19
  %57 = load i64, ptr %11, align 8, !tbaa !16
  %58 = load i64, ptr %14, align 8, !tbaa !16
  %59 = call i32 @mbedtls_ctr_drbg_reseed_internal(ptr noundef %55, ptr noundef %56, i64 noundef %57, i64 noundef %58)
  store i32 %59, ptr %12, align 4, !tbaa !14
  %60 = icmp ne i32 %59, 0
  br i1 %60, label %61, label %63

61:                                               ; preds = %54
  %62 = load i32, ptr %12, align 4, !tbaa !14
  store i32 %62, ptr %6, align 4
  store i32 1, ptr %15, align 4
  br label %64

63:                                               ; preds = %54
  store i32 0, ptr %6, align 4
  store i32 1, ptr %15, align 4
  br label %64

64:                                               ; preds = %63, %61, %52
  call void @llvm.lifetime.end.p0(i64 8, ptr %14) #10
  call void @llvm.lifetime.end.p0(i64 32, ptr %13) #10
  call void @llvm.lifetime.end.p0(i64 4, ptr %12) #10
  %65 = load i32, ptr %6, align 4
  ret i32 %65
}