; Function Attrs: nounwind uwtable
define hidden i32 @mbedtls_ctr_drbg_seed(ptr noundef initializes((328, 344)) %0, ptr noundef %1, ptr noundef %2, ptr noundef %3, i64 noundef %4) local_unnamed_addr #0 {
  %6 = alloca [32 x i8], align 16
  call void @llvm.lifetime.start.p0(i64 32, ptr nonnull %6) #14
  call void @llvm.memset.p0.i64(ptr noundef nonnull align 16 dereferenceable(32) %6, i8 0, i64 32, i1 false)
  %7 = getelementptr inbounds nuw i8, ptr %0, i64 328
  store ptr %1, ptr %7, align 8, !tbaa !14
  %8 = getelementptr inbounds nuw i8, ptr %0, i64 336
  store ptr %2, ptr %8, align 8, !tbaa !23
  %9 = getelementptr inbounds nuw i8, ptr %0, i64 24
  %10 = load i64, ptr %9, align 8, !tbaa !13
  %11 = icmp eq i64 %10, 0
  br i1 %11, label %12, label %13

12:                                               ; preds = %5
  store i64 48, ptr %9, align 8, !tbaa !13
  br label %13

13:                                               ; preds = %12, %5
  %14 = phi i64 [ 48, %12 ], [ %10, %5 ]
  %15 = getelementptr inbounds nuw i8, ptr %0, i64 16
  %16 = load i32, ptr %15, align 8, !tbaa !3
  %17 = getelementptr inbounds nuw i8, ptr %0, i64 40
  %18 = call i32 @mbedtls_aes_setkey_enc(ptr noundef nonnull %17, ptr noundef nonnull %6, i32 noundef 256) #14
  %.not = icmp eq i32 %18, 0
  br i1 %.not, label %19, label %27

19:                                               ; preds = %13
  %20 = zext nneg i32 %16 to i64
  %21 = icmp ugt i64 %14, 47
  %22 = add nuw nsw i64 %14, 1
  %23 = lshr i64 %22, 1
  %.0.i = select i1 %21, i64 0, i64 %23
  %24 = icmp slt i32 %16, 0
  %25 = select i1 %24, i64 %.0.i, i64 %20
  %26 = call fastcc i32 @mbedtls_ctr_drbg_reseed_internal(ptr noundef nonnull %0, ptr noundef %3, i64 noundef %4, i64 noundef %25)
  br label %27

27:                                               ; preds = %19, %13
  %.0 = phi i32 [ %18, %13 ], [ %26, %19 ]
  call void @llvm.lifetime.end.p0(i64 32, ptr nonnull %6) #14
  ret i32 %.0
}